target datalayout = "e-m:e-p270:32:32-p271:32:32-p272:64:64-i64:64-i128:128-f80:128-n8:16:32:64-S128"
target triple = "x86_64-pc-linux-gnu"

%struct.asn1_string_st = type { i32, i32, ptr, i64 }

@.str.2 = private unnamed_addr constant [36 x i8] c"../openssl/crypto/dsa/dsa_backend.c\00", align 1
@__func__.ossl_dsa_key_from_pkcs8 = private unnamed_addr constant [24 x i8] c"ossl_dsa_key_from_pkcs8\00", align 1

; Function Attrs: nounwind uwtable
define ptr @ossl_dsa_key_from_pkcs8(ptr noundef %0, ptr noundef %1, ptr noundef %2) #0 {
  %4 = alloca ptr, align 8
  %5 = alloca ptr, align 8
  %6 = alloca ptr, align 8
  %7 = alloca ptr, align 8
  %8 = alloca ptr, align 8
  %9 = alloca ptr, align 8
  %10 = alloca i32, align 4
  %11 = alloca i32, align 4
  %12 = alloca i32, align 4
  %13 = alloca ptr, align 8
  %14 = alloca ptr, align 8
  %15 = alloca ptr, align 8
  %16 = alloca ptr, align 8
  %17 = alloca ptr, align 8
  %18 = alloca ptr, align 8
  %19 = alloca ptr, align 8
  %20 = alloca ptr, align 8
  %21 = alloca ptr, align 8
  %22 = alloca ptr, align 8
  %23 = alloca i32, align 4
  store ptr %0, ptr %5, align 8, !tbaa !32
  store ptr %1, ptr %6, align 8, !tbaa !34
  store ptr %2, ptr %7, align 8, !tbaa !35
  call void @llvm.lifetime.start.p0(i64 8, ptr %8) #4
  call void @llvm.lifetime.start.p0(i64 8, ptr %9) #4
  call void @llvm.lifetime.start.p0(i64 4, ptr %10) #4
  call void @llvm.lifetime.start.p0(i64 4, ptr %11) #4
  call void @llvm.lifetime.start.p0(i64 4, ptr %12) #4
  call void @llvm.lifetime.start.p0(i64 8, ptr %13) #4
  call void @llvm.lifetime.start.p0(i64 8, ptr %14) #4
  call void @llvm.lifetime.start.p0(i64 8, ptr %15) #4
  call void @llvm.lifetime.start.p0(i64 8, ptr %16) #4
  store ptr null, ptr %16, align 8, !tbaa !36
  call void @llvm.lifetime.start.p0(i64 8, ptr %17) #4
  call void @llvm.lifetime.start.p0(i64 8, ptr %18) #4
  call void @llvm.lifetime.start.p0(i64 8, ptr %19) #4
  store ptr null, ptr %19, align 8, !tbaa !12
  call void @llvm.lifetime.start.p0(i64 8, ptr %20) #4
  store ptr null, ptr %20, align 8, !tbaa !12
  call void @llvm.lifetime.start.p0(i64 8, ptr %21) #4
  store ptr null, ptr %21, align 8, !tbaa !38
  call void @llvm.lifetime.start.p0(i64 8, ptr %22) #4
  store ptr null, ptr %22, align 8, !tbaa !3
  %24 = load ptr, ptr %5, align 8, !tbaa !32
  %25 = call i32 @PKCS8_pkey_get0(ptr noundef null, ptr noundef %8, ptr noundef %10, ptr noundef %15, ptr noundef %24)
  %26 = icmp ne i32 %25, 0
  br i1 %26, label %28, label %27

27:                                               ; preds = %3
  store ptr null, ptr %4, align 8
  store i32 1, ptr %23, align 4
  br label %105

28:                                               ; preds = %3
  %29 = load ptr, ptr %15, align 8, !tbaa !40
  call void @X509_ALGOR_get0(ptr noundef null, ptr noundef %12, ptr noundef %13, ptr noundef %29)
  %30 = load i32, ptr %10, align 4, !tbaa !10
  %31 = sext i32 %30 to i64
  %32 = call ptr @d2i_ASN1_INTEGER(ptr noundef null, ptr noundef %8, i64 noundef %31)
  store ptr %32, ptr %16, align 8, !tbaa !36
  %33 = icmp eq ptr %32, null
  br i1 %33, label %34, label %35

34:                                               ; preds = %28
  br label %96

35:                                               ; preds = %28
  %36 = load ptr, ptr %16, align 8, !tbaa !36
  %37 = getelementptr inbounds nuw %struct.asn1_string_st, ptr %36, i32 0, i32 1
  %38 = load i32, ptr %37, align 4, !tbaa !42
  %39 = icmp eq i32 %38, 258
  br i1 %39, label %43, label %40

40:                                               ; preds = %35
  %41 = load i32, ptr %12, align 4, !tbaa !10
  %42 = icmp ne i32 %41, 16
  br i1 %42, label %43, label %44

43:                                               ; preds = %40, %35
  br label %96

44:                                               ; preds = %40
  %45 = load ptr, ptr %13, align 8, !tbaa !44
  store ptr %45, ptr %14, align 8, !tbaa !36
  %46 = load ptr, ptr %14, align 8, !tbaa !36
  %47 = getelementptr inbounds nuw %struct.asn1_string_st, ptr %46, i32 0, i32 2
  %48 = load ptr, ptr %47, align 8, !tbaa !45
  store ptr %48, ptr %9, align 8, !tbaa !35
  %49 = load ptr, ptr %14, align 8, !tbaa !36
  %50 = getelementptr inbounds nuw %struct.asn1_string_st, ptr %49, i32 0, i32 0
  %51 = load i32, ptr %50, align 8, !tbaa !46
  store i32 %51, ptr %11, align 4, !tbaa !10
  %52 = load i32, ptr %11, align 4, !tbaa !10
  %53 = sext i32 %52 to i64
  %54 = call ptr @d2i_DSAparams(ptr noundef null, ptr noundef %9, i64 noundef %53)
  store ptr %54, ptr %22, align 8, !tbaa !3
  %55 = icmp eq ptr %54, null
  br i1 %55, label %56, label %57

56:                                               ; preds = %44
  br label %96

57:                                               ; preds = %44
  %58 = call ptr @BN_secure_new()
  store ptr %58, ptr %20, align 8, !tbaa !12
  %59 = icmp eq ptr %58, null
  br i1 %59, label %65, label %60

60:                                               ; preds = %57
  %61 = load ptr, ptr %16, align 8, !tbaa !36
  %62 = load ptr, ptr %20, align 8, !tbaa !12
  %63 = call ptr @ASN1_INTEGER_to_BN(ptr noundef %61, ptr noundef %62)
  %64 = icmp ne ptr %63, null
  br i1 %64, label %66, label %65

65:                                               ; preds = %60, %57
  call void @ERR_new()
  call void @ERR_set_debug(ptr noundef @.str.2, i32 noundef 156, ptr noundef @__func__.ossl_dsa_key_from_pkcs8)
  call void (i32, i32, ptr, ...) @ERR_set_error(i32 noundef 10, i32 noundef 109, ptr noundef null)
  br label %97

66:                                               ; preds = %60
  %67 = call ptr @BN_new()
  store ptr %67, ptr %19, align 8, !tbaa !12
  %68 = icmp eq ptr %67, null
  br i1 %68, label %69, label %70

69:                                               ; preds = %66
  call void @ERR_new()
  call void @ERR_set_debug(ptr noundef @.str.2, i32 noundef 161, ptr noundef @__func__.ossl_dsa_key_from_pkcs8)
  call void (i32, i32, ptr, ...) @ERR_set_error(i32 noundef 10, i32 noundef 524291, ptr noundef null)
  br label %97

70:                                               ; preds = %66
  %71 = call ptr @BN_CTX_new()
  store ptr %71, ptr %21, align 8, !tbaa !38
  %72 = icmp eq ptr %71, null
  br i1 %72, label %73, label %74

73:                                               ; preds = %70
  call void @ERR_new()
  call void @ERR_set_debug(ptr noundef @.str.2, i32 noundef 165, ptr noundef @__func__.ossl_dsa_key_from_pkcs8)
  call void (i32, i32, ptr, ...) @ERR_set_error(i32 noundef 10, i32 noundef 524291, ptr noundef null)
  br label %97

74:                                               ; preds = %70
  %75 = load ptr, ptr %22, align 8, !tbaa !3
  %76 = call ptr @DSA_get0_p(ptr noundef %75)
  store ptr %76, ptr %17, align 8, !tbaa !12
  %77 = load ptr, ptr %22, align 8, !tbaa !3
  %78 = call ptr @DSA_get0_g(ptr noundef %77)
  store ptr %78, ptr %18, align 8, !tbaa !12
  %79 = load ptr, ptr %20, align 8, !tbaa !12
  call void @BN_set_flags(ptr noundef %79, i32 noundef 4)
  %80 = load ptr, ptr %19, align 8, !tbaa !12
  %81 = load ptr, ptr %18, align 8, !tbaa !12
  %82 = load ptr, ptr %20, align 8, !tbaa !12
  %83 = load ptr, ptr %17, align 8, !tbaa !12
  %84 = load ptr, ptr %21, align 8, !tbaa !38
  %85 = call i32 @BN_mod_exp(ptr noundef %80, ptr noundef %81, ptr noundef %82, ptr noundef %83, ptr noundef %84)
  %86 = icmp ne i32 %85, 0
  br i1 %86, label %88, label %87

87:                                               ; preds = %74
  call void @ERR_new()
  call void @ERR_set_debug(ptr noundef @.str.2, i32 noundef 173, ptr noundef @__func__.ossl_dsa_key_from_pkcs8)
  call void (i32, i32, ptr, ...) @ERR_set_error(i32 noundef 10, i32 noundef 109, ptr noundef null)
  br label %97

88:                                               ; preds = %74
  %89 = load ptr, ptr %22, align 8, !tbaa !3
  %90 = load ptr, ptr %19, align 8, !tbaa !12
  %91 = load ptr, ptr %20, align 8, !tbaa !12
  %92 = call i32 @DSA_set0_key(ptr noundef %89, ptr noundef %90, ptr noundef %91)
  %93 = icmp ne i32 %92, 0
  br i1 %93, label %95, label %94

94:                                               ; preds = %88
  call void @ERR_new()
  call void @ERR_set_debug(ptr noundef @.str.2, i32 noundef 177, ptr noundef @__func__.ossl_dsa_key_from_pkcs8)
  call void (i32, i32, ptr, ...) @ERR_set_error(i32 noundef 10, i32 noundef 786691, ptr noundef null)
  br label %97

95:                                               ; preds = %88
  br label %101

96:                                               ; preds = %56, %43, %34
  call void @ERR_new()
  call void @ERR_set_debug(ptr noundef @.str.2, i32 noundef 184, ptr noundef @__func__.ossl_dsa_key_from_pkcs8)
  call void (i32, i32, ptr, ...) @ERR_set_error(i32 noundef 10, i32 noundef 104, ptr noundef null)
  br label %97

97:                                               ; preds = %96, %94, %87, %73, %69, %65
  %98 = load ptr, ptr %20, align 8, !tbaa !12
  call void @BN_free(ptr noundef %98)
  %99 = load ptr, ptr %19, align 8, !tbaa !12
  call void @BN_free(ptr noundef %99)
  %100 = load ptr, ptr %22, align 8, !tbaa !3
  call void @DSA_free(ptr noundef %100)
  store ptr null, ptr %22, align 8, !tbaa !3
  br label %101

101:                                              ; preds = %97, %95
  %102 = load ptr, ptr %21, align 8, !tbaa !38
  call void @BN_CTX_free(ptr noundef %102)
  %103 = load ptr, ptr %16, align 8, !tbaa !36
  call void @ASN1_STRING_clear_free(ptr noundef %103)
  %104 = load ptr, ptr %22, align 8, !tbaa !3
  store ptr %104, ptr %4, align 8
  store i32 1, ptr %23, align 4
  br label %105

105:                                              ; preds = %101, %27
  call void @llvm.lifetime.end.p0(i64 8, ptr %22) #4
  call void @llvm.lifetime.end.p0(i64 8, ptr %21) #4
  call void @llvm.lifetime.end.p0(i64 8, ptr %20) #4
  call void @llvm.lifetime.end.p0(i64 8, ptr %19) #4
  call void @llvm.lifetime.end.p0(i64 8, ptr %18) #4
  call void @llvm.lifetime.end.p0(i64 8, ptr %17) #4
  call void @llvm.lifetime.end.p0(i64 8, ptr %16) #4
  call void @llvm.lifetime.end.p0(i64 8, ptr %15) #4
  call void @llvm.lifetime.end.p0(i64 8, ptr %14) #4
  call void @llvm.lifetime.end.p0(i64 8, ptr %13) #4
  call void @llvm.lifetime.end.p0(i64 4, ptr %12) #4
  call void @llvm.lifetime.end.p0(i64 4, ptr %11) #4
  call void @llvm.lifetime.end.p0(i64 4, ptr %10) #4
  call void @llvm.lifetime.end.p0(i64 8, ptr %9) #4
  call void @llvm.lifetime.end.p0(i64 8, ptr %8) #4
  %106 = load ptr, ptr %4, align 8
  ret ptr %106
}