; Function Attrs: nounwind uwtable
define ptr @ossl_dsa_key_from_pkcs8(ptr noundef %0, ptr noundef readnone captures(none) %1, ptr noundef readnone captures(none) %2) local_unnamed_addr #0 {
  %4 = alloca ptr, align 8
  %5 = alloca ptr, align 8
  %6 = alloca i32, align 4
  %7 = alloca i32, align 4
  %8 = alloca ptr, align 8
  %9 = alloca ptr, align 8
  call void @llvm.lifetime.start.p0(i64 8, ptr nonnull %4) #3
  call void @llvm.lifetime.start.p0(i64 8, ptr nonnull %5) #3
  call void @llvm.lifetime.start.p0(i64 4, ptr nonnull %6) #3
  call void @llvm.lifetime.start.p0(i64 4, ptr nonnull %7) #3
  call void @llvm.lifetime.start.p0(i64 8, ptr nonnull %8) #3
  call void @llvm.lifetime.start.p0(i64 8, ptr nonnull %9) #3
  %10 = call i32 @PKCS8_pkey_get0(ptr noundef null, ptr noundef nonnull %4, ptr noundef nonnull %6, ptr noundef nonnull %9, ptr noundef %0) #3
  %.not = icmp eq i32 %10, 0
  br i1 %.not, label %50, label %11

11:                                               ; preds = %3
  %12 = load ptr, ptr %9, align 8, !tbaa !25
  call void @X509_ALGOR_get0(ptr noundef null, ptr noundef nonnull %7, ptr noundef nonnull %8, ptr noundef %12) #3
  %13 = load i32, ptr %6, align 4, !tbaa !27
  %14 = sext i32 %13 to i64
  %15 = call ptr @d2i_ASN1_INTEGER(ptr noundef null, ptr noundef nonnull %4, i64 noundef %14) #3
  %16 = icmp eq ptr %15, null
  br i1 %16, label %48, label %17

17:                                               ; preds = %11
  %18 = getelementptr inbounds nuw i8, ptr %15, i64 4
  %19 = load i32, ptr %18, align 4, !tbaa !28
  %20 = icmp eq i32 %19, 258
  %21 = load i32, ptr %7, align 4
  %22 = icmp ne i32 %21, 16
  %or.cond = select i1 %20, i1 true, i1 %22
  br i1 %or.cond, label %48, label %23

23:                                               ; preds = %17
  %24 = load ptr, ptr %8, align 8, !tbaa !30
  %25 = getelementptr inbounds nuw i8, ptr %24, i64 8
  %26 = load ptr, ptr %25, align 8, !tbaa !31
  store ptr %26, ptr %5, align 8, !tbaa !32
  %27 = load i32, ptr %24, align 8, !tbaa !33
  %28 = sext i32 %27 to i64
  %29 = call ptr @d2i_DSAparams(ptr noundef null, ptr noundef nonnull %5, i64 noundef %28) #3
  %30 = icmp eq ptr %29, null
  br i1 %30, label %48, label %31

31:                                               ; preds = %23
  %32 = call ptr @BN_secure_new() #3
  %33 = icmp eq ptr %32, null
  br i1 %33, label %48, label %34

34:                                               ; preds = %31
  %35 = call ptr @ASN1_INTEGER_to_BN(ptr noundef nonnull %15, ptr noundef nonnull %32) #3
  %.not38 = icmp eq ptr %35, null
  br i1 %.not38, label %48, label %36

36:                                               ; preds = %34
  %37 = call ptr @BN_new() #3
  %38 = icmp eq ptr %37, null
  br i1 %38, label %48, label %39

39:                                               ; preds = %36
  %40 = call ptr @BN_CTX_new() #3
  %41 = icmp eq ptr %40, null
  br i1 %41, label %48, label %42

42:                                               ; preds = %39
  %43 = call ptr @DSA_get0_p(ptr noundef nonnull %29) #3
  %44 = call ptr @DSA_get0_g(ptr noundef nonnull %29) #3
  call void @BN_set_flags(ptr noundef nonnull %32, i32 noundef 4) #3
  %45 = call i32 @BN_mod_exp(ptr noundef nonnull %37, ptr noundef %44, ptr noundef nonnull %32, ptr noundef %43, ptr noundef nonnull %40) #3
  %.not39 = icmp eq i32 %45, 0
  br i1 %.not39, label %48, label %46

46:                                               ; preds = %42
  %47 = call i32 @DSA_set0_key(ptr noundef nonnull %29, ptr noundef nonnull %37, ptr noundef nonnull %32) #3
  %.not40 = icmp eq i32 %47, 0
  br i1 %.not40, label %48, label %49

48:                                               ; preds = %11, %17, %23, %46, %42, %39, %36, %31, %34
  %.sink41 = phi i32 [ 156, %34 ], [ 156, %31 ], [ 161, %36 ], [ 165, %39 ], [ 173, %42 ], [ 177, %46 ], [ 184, %23 ], [ 184, %17 ], [ 184, %11 ]
  %.sink = phi i32 [ 109, %34 ], [ 109, %31 ], [ 524291, %36 ], [ 524291, %39 ], [ 109, %42 ], [ 786691, %46 ], [ 104, %23 ], [ 104, %17 ], [ 104, %11 ]
  %.028 = phi ptr [ null, %34 ], [ null, %31 ], [ null, %36 ], [ %37, %39 ], [ %37, %42 ], [ %37, %46 ], [ null, %23 ], [ null, %17 ], [ null, %11 ]
  %.027 = phi ptr [ %32, %34 ], [ %32, %31 ], [ %32, %36 ], [ %32, %39 ], [ %32, %42 ], [ %32, %46 ], [ null, %23 ], [ null, %17 ], [ null, %11 ]
  %.025 = phi ptr [ null, %34 ], [ null, %31 ], [ null, %36 ], [ null, %39 ], [ %40, %42 ], [ %40, %46 ], [ null, %23 ], [ null, %17 ], [ null, %11 ]
  %.1 = phi ptr [ %29, %34 ], [ %29, %31 ], [ %29, %36 ], [ %29, %39 ], [ %29, %42 ], [ %29, %46 ], [ null, %23 ], [ null, %17 ], [ null, %11 ]
  call void @ERR_new() #3
  call void @ERR_set_debug(ptr noundef nonnull @.str.2, i32 noundef %.sink41, ptr noundef nonnull @__func__.ossl_dsa_key_from_pkcs8) #3
  call void (i32, i32, ptr, ...) @ERR_set_error(i32 noundef 10, i32 noundef %.sink, ptr noundef null) #3
  call void @BN_free(ptr noundef %.027) #3
  call void @BN_free(ptr noundef %.028) #3
  call void @DSA_free(ptr noundef %.1) #3
  br label %49

49:                                               ; preds = %46, %48
  %.126 = phi ptr [ %.025, %48 ], [ %40, %46 ]
  %.2 = phi ptr [ null, %48 ], [ %29, %46 ]
  call void @BN_CTX_free(ptr noundef %.126) #3
  call void @ASN1_STRING_clear_free(ptr noundef %15) #3
  br label %50

50:                                               ; preds = %3, %49
  %.029 = phi ptr [ %.2, %49 ], [ null, %3 ]
  call void @llvm.lifetime.end.p0(i64 8, ptr nonnull %9) #3
  call void @llvm.lifetime.end.p0(i64 8, ptr nonnull %8) #3
  call void @llvm.lifetime.end.p0(i64 4, ptr nonnull %7) #3
  call void @llvm.lifetime.end.p0(i64 4, ptr nonnull %6) #3
  call void @llvm.lifetime.end.p0(i64 8, ptr nonnull %5) #3
  call void @llvm.lifetime.end.p0(i64 8, ptr nonnull %4) #3
  ret ptr %.029
}